target datalayout = "e-m:e-p270:32:32-p271:32:32-p272:64:64-i64:64-i128:128-f80:128-n8:16:32:64-S128"
target triple = "x86_64-pc-linux-gnu"

%struct.AVFrameSideData = type { i32, ptr, i64, ptr, ptr }

; Function Attrs: nounwind uwtable
define ptr @av_dynamic_hdr_vivid_alloc(ptr noundef %0) #0 {
  %2 = alloca ptr, align 8
  %3 = alloca ptr, align 8
  %4 = alloca ptr, align 8
  %5 = alloca i32, align 4
  store ptr %0, ptr %3, align 8, !tbaa !4
  call void @llvm.lifetime.start.p0(i64 8, ptr %4) #4
  %6 = call noalias ptr @av_mallocz(i64 noundef 1372)
  store ptr %6, ptr %4, align 8, !tbaa !9
  %7 = load ptr, ptr %4, align 8, !tbaa !9
  %8 = icmp ne ptr %7, null
  br i1 %8, label %10, label %9

9:                                                ; preds = %1
  store ptr null, ptr %2, align 8
  store i32 1, ptr %5, align 4
  br label %17

10:                                               ; preds = %1
  %11 = load ptr, ptr %3, align 8, !tbaa !4
  %12 = icmp ne ptr %11, null
  br i1 %12, label %13, label %15

13:                                               ; preds = %10
  %14 = load ptr, ptr %3, align 8, !tbaa !4
  store i64 1372, ptr %14, align 8, !tbaa !11
  br label %15

15:                                               ; preds = %13, %10
  %16 = load ptr, ptr %4, align 8, !tbaa !9
  store ptr %16, ptr %2, align 8
  store i32 1, ptr %5, align 4
  br label %17

17:                                               ; preds = %15, %9
  call void @llvm.lifetime.end.p0(i64 8, ptr %4) #4
  %18 = load ptr, ptr %2, align 8
  ret ptr %18
}

; Function Attrs: nocallback nofree nosync nounwind willreturn memory(argmem: readwrite)
declare void @llvm.lifetime.start.p0(i64 immarg, ptr captures(none)) #1

declare noalias ptr @av_mallocz(i64 noundef) #2

; Function Attrs: nocallback nofree nosync nounwind willreturn memory(argmem: readwrite)
declare void @llvm.lifetime.end.p0(i64 immarg, ptr captures(none)) #1

; Function Attrs: nounwind uwtable
define ptr @av_dynamic_hdr_vivid_create_side_data(ptr noundef %0) #0 {
  %2 = alloca ptr, align 8
  %3 = alloca ptr, align 8
  %4 = alloca ptr, align 8
  %5 = alloca i32, align 4
  store ptr %0, ptr %3, align 8, !tbaa !13
  call void @llvm.lifetime.start.p0(i64 8, ptr %4) #4
  %6 = load ptr, ptr %3, align 8, !tbaa !13
  %7 = call ptr @av_frame_new_side_data(ptr noundef %6, i32 noundef 25, i64 noundef 1372)
  store ptr %7, ptr %4, align 8, !tbaa !15
  %8 = load ptr, ptr %4, align 8, !tbaa !15
  %9 = icmp ne ptr %8, null
  br i1 %9, label %11, label %10

10:                                               ; preds = %1
  store ptr null, ptr %2, align 8
  store i32 1, ptr %5, align 4
  br label %18

11:                                               ; preds = %1
  %12 = load ptr, ptr %4, align 8, !tbaa !15
  %13 = getelementptr inbounds nuw %struct.AVFrameSideData, ptr %12, i32 0, i32 1
  %14 = load ptr, ptr %13, align 8, !tbaa !17
  call void @llvm.memset.p0.i64(ptr align 1 %14, i8 0, i64 1372, i1 false)
  %15 = load ptr, ptr %4, align 8, !tbaa !15
  %16 = getelementptr inbounds nuw %struct.AVFrameSideData, ptr %15, i32 0, i32 1
  %17 = load ptr, ptr %16, align 8, !tbaa !17
  store ptr %17, ptr %2, align 8
  store i32 1, ptr %5, align 4
  br label %18

18:                                               ; preds = %11, %10
  call void @llvm.lifetime.end.p0(i64 8, ptr %4) #4
  %19 = load ptr, ptr %2, align 8
  ret ptr %19
}

declare ptr @av_frame_new_side_data(ptr noundef, i32 noundef, i64 noundef) #2

; Function Attrs: nocallback nofree nounwind willreturn memory(argmem: write)
declare void @llvm.memset.p0.i64(ptr writeonly captures(none), i8, i64, i1 immarg) #3


!llvm.module.flags = !{!0, !1, !2, !3}

!0 = !{i32 1, !"wchar_size", i32 4}
!1 = !{i32 8, !"PIC Level", i32 2}
!2 = !{i32 7, !"uwtable", i32 2}
!3 = !{i32 1, !"override-stack-alignment", i32 16}
!4 = !{!5, !5, i64 0}
!5 = !{!"p1 long", !6, i64 0}
!6 = !{!"any pointer", !7, i64 0}
!7 = !{!"omnipotent char", !8, i64 0}
!8 = !{!"Simple C/C++ TBAA"}
!9 = !{!10, !10, i64 0}
!10 = !{!"p1 _ZTS17AVDynamicHDRVivid", !6, i64 0}
!11 = !{!12, !12, i64 0}
!12 = !{!"long", !7, i64 0}
!13 = !{!14, !14, i64 0}
!14 = !{!"p1 _ZTS7AVFrame", !6, i64 0}
!15 = !{!16, !16, i64 0}
!16 = !{!"p1 _ZTS15AVFrameSideData", !6, i64 0}
!17 = !{!18, !20, i64 8}
!18 = !{!"AVFrameSideData", !19, i64 0, !20, i64 8, !12, i64 16, !21, i64 24, !22, i64 32}
!19 = !{!"int", !7, i64 0}
!20 = !{!"p1 omnipotent char", !6, i64 0}
!21 = !{!"p1 _ZTS12AVDictionary", !6, i64 0}
!22 = !{!"p1 _ZTS11AVBufferRef", !6, i64 0}
